target datalayout = "e-m:e-p270:32:32-p271:32:32-p272:64:64-i64:64-i128:128-f80:128-n8:16:32:64-S128"
target triple = "x86_64-pc-linux-gnu"

@.str.1 = private unnamed_addr constant [50 x i8] c"../openssl/providers/implementations/kem/ec_kem.c\00", align 1
@__func__.eckey_check = private unnamed_addr constant [12 x i8] c"eckey_check\00", align 1

; Function Attrs: nounwind uwtable
define internal i32 @eckey_check(ptr noundef %0, i32 noundef %1) #0 {
  %3 = alloca i32, align 4
  %4 = alloca ptr, align 8
  %5 = alloca i32, align 4
  %6 = alloca i32, align 4
  %7 = alloca ptr, align 8
  %8 = alloca ptr, align 8
  %9 = alloca ptr, align 8
  %10 = alloca ptr, align 8
  %11 = alloca i32, align 4
  %12 = alloca ptr, align 8
  %13 = alloca ptr, align 8
  store ptr %0, ptr %4, align 8, !tbaa !3
  store i32 %1, ptr %5, align 4, !tbaa !14
  call void @llvm.lifetime.start.p0(i64 4, ptr %6) #5
  store i32 0, ptr %6, align 4, !tbaa !14
  call void @llvm.lifetime.start.p0(i64 8, ptr %7) #5
  store ptr null, ptr %7, align 8, !tbaa !46
  call void @llvm.lifetime.start.p0(i64 8, ptr %8) #5
  store ptr null, ptr %8, align 8, !tbaa !8
  call void @llvm.lifetime.start.p0(i64 8, ptr %9) #5
  %14 = load ptr, ptr %4, align 8, !tbaa !3
  %15 = call ptr @EC_KEY_get0_private_key(ptr noundef %14)
  store ptr %15, ptr %9, align 8, !tbaa !8
  call void @llvm.lifetime.start.p0(i64 8, ptr %10) #5
  %16 = load ptr, ptr %4, align 8, !tbaa !3
  %17 = call ptr @EC_KEY_get0_public_key(ptr noundef %16)
  store ptr %17, ptr %10, align 8, !tbaa !48
  %18 = load ptr, ptr %10, align 8, !tbaa !48
  %19 = icmp eq ptr %18, null
  br i1 %19, label %20, label %21

20:                                               ; preds = %2
  call void @ERR_new()
  call void @ERR_set_debug(ptr noundef @.str.1, i32 noundef 76, ptr noundef @__func__.eckey_check)
  call void (i32, i32, ptr, ...) @ERR_set_error(i32 noundef 57, i32 noundef 220, ptr noundef null)
  store i32 0, ptr %3, align 4
  store i32 1, ptr %11, align 4
  br label %65

21:                                               ; preds = %2
  %22 = load ptr, ptr %9, align 8, !tbaa !8
  %23 = icmp eq ptr %22, null
  br i1 %23, label %24, label %28

24:                                               ; preds = %21
  %25 = load i32, ptr %5, align 4, !tbaa !14
  %26 = icmp eq i32 %25, 0
  %27 = zext i1 %26 to i32
  store i32 %27, ptr %3, align 4
  store i32 1, ptr %11, align 4
  br label %65

28:                                               ; preds = %21
  call void @llvm.lifetime.start.p0(i64 8, ptr %12) #5
  %29 = load ptr, ptr %4, align 8, !tbaa !3
  %30 = call ptr @EC_KEY_get0_group(ptr noundef %29)
  store ptr %30, ptr %12, align 8, !tbaa !29
  call void @llvm.lifetime.start.p0(i64 8, ptr %13) #5
  %31 = load ptr, ptr %12, align 8, !tbaa !29
  %32 = call ptr @EC_GROUP_get0_order(ptr noundef %31)
  store ptr %32, ptr %13, align 8, !tbaa !8
  %33 = load ptr, ptr %4, align 8, !tbaa !3
  %34 = call ptr @ossl_ec_key_get_libctx(ptr noundef %33)
  %35 = call ptr @BN_CTX_new_ex(ptr noundef %34)
  store ptr %35, ptr %7, align 8, !tbaa !46
  %36 = call ptr @BN_new()
  store ptr %36, ptr %8, align 8, !tbaa !8
  %37 = load ptr, ptr %13, align 8, !tbaa !8
  %38 = icmp ne ptr %37, null
  br i1 %38, label %39, label %60

39:                                               ; preds = %28
  %40 = load ptr, ptr %8, align 8, !tbaa !8
  %41 = icmp ne ptr %40, null
  br i1 %41, label %42, label %60

42:                                               ; preds = %39
  %43 = load ptr, ptr %7, align 8, !tbaa !46
  %44 = icmp ne ptr %43, null
  br i1 %44, label %45, label %60

45:                                               ; preds = %42
  %46 = load ptr, ptr %8, align 8, !tbaa !8
  %47 = load ptr, ptr %9, align 8, !tbaa !8
  %48 = load ptr, ptr %13, align 8, !tbaa !8
  %49 = load ptr, ptr %7, align 8, !tbaa !46
  %50 = call i32 @BN_div(ptr noundef null, ptr noundef %46, ptr noundef %47, ptr noundef %48, ptr noundef %49)
  %51 = icmp ne i32 %50, 0
  br i1 %51, label %52, label %57

52:                                               ; preds = %45
  %53 = load ptr, ptr %8, align 8, !tbaa !8
  %54 = call i32 @BN_is_zero(ptr noundef %53)
  %55 = icmp ne i32 %54, 0
  %56 = xor i1 %55, true
  br label %57

57:                                               ; preds = %52, %45
  %58 = phi i1 [ false, %45 ], [ %56, %52 ]
  %59 = zext i1 %58 to i32
  store i32 %59, ptr %6, align 4, !tbaa !14
  br label %60

60:                                               ; preds = %57, %42, %39, %28
  call void @llvm.lifetime.end.p0(i64 8, ptr %13) #5
  call void @llvm.lifetime.end.p0(i64 8, ptr %12) #5
  br label %61

61:                                               ; preds = %60
  %62 = load ptr, ptr %8, align 8, !tbaa !8
  call void @BN_free(ptr noundef %62)
  %63 = load ptr, ptr %7, align 8, !tbaa !46
  call void @BN_CTX_free(ptr noundef %63)
  %64 = load i32, ptr %6, align 4, !tbaa !14
  store i32 %64, ptr %3, align 4
  store i32 1, ptr %11, align 4
  br label %65

65:                                               ; preds = %61, %24, %20
  call void @llvm.lifetime.end.p0(i64 8, ptr %10) #5
  call void @llvm.lifetime.end.p0(i64 8, ptr %9) #5
  call void @llvm.lifetime.end.p0(i64 8, ptr %8) #5
  call void @llvm.lifetime.end.p0(i64 8, ptr %7) #5
  call void @llvm.lifetime.end.p0(i64 4, ptr %6) #5
  %66 = load i32, ptr %3, align 4
  ret i32 %66
}