; Function Attrs: nounwind uwtable
define internal fastcc range(i32 0, 2) i32 @eckey_check(ptr noundef %0, i32 noundef range(i32 0, 2) %1) unnamed_addr #0 {
  %3 = tail call ptr @EC_KEY_get0_private_key(ptr noundef %0) #5
  %4 = tail call ptr @EC_KEY_get0_public_key(ptr noundef %0) #5
  %5 = icmp eq ptr %4, null
  br i1 %5, label %6, label %7

6:                                                ; preds = %2
  tail call void @ERR_new() #5
  tail call void @ERR_set_debug(ptr noundef nonnull @.str.1, i32 noundef 76, ptr noundef nonnull @__func__.eckey_check) #5
  tail call void (i32, i32, ptr, ...) @ERR_set_error(i32 noundef 57, i32 noundef 220, ptr noundef null) #5
  br label %26

7:                                                ; preds = %2
  %8 = icmp eq ptr %3, null
  br i1 %8, label %9, label %11

9:                                                ; preds = %7
  %10 = xor i32 %1, 1
  br label %26

11:                                               ; preds = %7
  %12 = tail call ptr @EC_KEY_get0_group(ptr noundef %0) #5
  %13 = tail call ptr @EC_GROUP_get0_order(ptr noundef %12) #5
  %14 = tail call ptr @ossl_ec_key_get_libctx(ptr noundef %0) #5
  %15 = tail call ptr @BN_CTX_new_ex(ptr noundef %14) #5
  %16 = tail call ptr @BN_new() #5
  %17 = icmp ne ptr %13, null
  %18 = icmp ne ptr %16, null
  %or.cond = select i1 %17, i1 %18, i1 false
  %19 = icmp ne ptr %15, null
  %or.cond3 = select i1 %or.cond, i1 %19, i1 false
  br i1 %or.cond3, label %20, label %25

20:                                               ; preds = %11
  %21 = tail call i32 @BN_div(ptr noundef null, ptr noundef nonnull %16, ptr noundef nonnull %3, ptr noundef nonnull %13, ptr noundef nonnull %15) #5
  %.not = icmp eq i32 %21, 0
  br i1 %.not, label %25, label %22

22:                                               ; preds = %20
  %23 = tail call i32 @BN_is_zero(ptr noundef nonnull %16) #5
  %.not27 = icmp eq i32 %23, 0
  %24 = zext i1 %.not27 to i32
  br label %25

25:                                               ; preds = %20, %22, %11
  %.022 = phi i32 [ 0, %11 ], [ 0, %20 ], [ %24, %22 ]
  tail call void @BN_free(ptr noundef %16) #5
  tail call void @BN_CTX_free(ptr noundef %15) #5
  br label %26

26:                                               ; preds = %25, %9, %6
  %.0 = phi i32 [ 0, %6 ], [ %10, %9 ], [ %.022, %25 ]
  ret i32 %.0
}